; Function Attrs: nounwind sspstrong uwtable
define dso_local noalias nonnull ptr @ruby_strdup(ptr noundef nonnull readonly captures(none) %0) local_unnamed_addr #2 {
  %2 = tail call i64 @strlen(ptr noundef nonnull dereferenceable(1) %0) #20
  %3 = add i64 %2, 1
  %4 = tail call noalias nonnull ptr @ruby_xmalloc(i64 noundef %3) #21
  %.not.i = icmp eq i64 %3, 0
  br i1 %.not.i, label %ruby_nonempty_memcpy.exit, label %5

5:                                                ; preds = %1
  tail call void @llvm.memcpy.p0.p0.i64(ptr noundef nonnull align 1 %4, ptr noundef nonnull readonly align 1 %0, i64 noundef range(i64 1, 0) %3, i1 noundef false) #19
  br label %ruby_nonempty_memcpy.exit

ruby_nonempty_memcpy.exit:                        ; preds = %1, %5
  ret ptr %4
}